(dp0
S'./gallery/IMG_20170410_155320.jpg'
p1
(lp2
S'Vipra'
p3
aS'Varun'
p4
aS'Vipra'
p5
aS'Shruti'
p6
aS'Yash'
p7
asS'./gallery/IMG_20170410_154708.jpg'
p8
(lp9
S'Vipra'
p10
asS'./gallery/IMG-20170530-WA0001.jpg'
p11
(lp12
S'Varun'
p13
aS'Yash'
p14
asS'./gallery/B612_20170410_163803.jpg'
p15
(lp16
S'Vipra'
p17
asS'./gallery/IMG_20170410_184644.jpg'
p18
(lp19
S'Sanchit'
p20
aS'Yash'
p21
aS'Rishabh'
p22
asS'./gallery/IMG_20170326_163411833_HDR.jpg'
p23
(lp24
S'Varun'
p25
asS'./gallery/WIN_20170525_17_15_01_Pro.jpg'
p26
(lp27
S'Varun'
p28
asS'./gallery/IMG_20170410_154851.jpg'
p29
(lp30
S'Yash'
p31
asS'./gallery/IMG-20170530-WA0002 - Copy.jpg'
p32
(lp33
S'Shruti'
p34
aS'Vipra'
p35
aS'Vipra'
p36
asS'./gallery/B612_20170410_143603.jpg'
p37
(lp38
S'Yash'
p39
aS'Varun'
p40
asS'./gallery/WIN_20170529_15_38_23_Pro.jpg'
p41
(lp42
S'Rishabh'
p43
asS'./gallery/WIN_20170525_17_14_54_Pro.jpg'
p44
(lp45
S'Varun'
p46
asS'./gallery/IMG_20170410_142516.jpg'
p47
(lp48
S'Vipra'
p49
aS'Yash'
p50
asS'./gallery/IMG_20170324_182702.jpg'
p51
(lp52
S'Yash'
p53
asS'./gallery/B612_20170410_163754.jpg'
p54
(lp55
S'Shruti'
p56
aS'Yash'
p57
aS'Vipra'
p58
asS'./gallery/WIN_20170525_17_14_57_Pro.jpg'
p59
(lp60
S'Varun'
p61
asS'./gallery/WIN_20170529_15_09_43_Pro.jpg'
p62
(lp63
S'Varun'
p64
aS'Saatvik'
p65
asS'./gallery/B612_20170410_154451.jpg'
p66
(lp67
S'Shruti'
p68
aS'Vipra'
p69
asS'./gallery/WIN_20170529_15_05_49_Pro.jpg'
p70
(lp71
S'Siddhartha'
p72
aS'Varun'
p73
asS'./gallery/IMG-20170530-WA0004.jpg'
p74
(lp75
S'Yash'
p76
aS'Varun'
p77
asS'./gallery/IMG_20170326_183337.jpg'
p78
(lp79
S'Yash'
p80
aS'Varun'
p81
asS'./gallery/B612_20170410_154333.jpg'
p82
(lp83
S'Vipra'
p84
aS'Shruti'
p85
asS'./gallery/B612_20170410_135423.jpg'
p86
(lp87
S'Shruti'
p88
aS'Vipra'
p89
asS'./gallery/IMG-20170530-WA0014.jpg'
p90
(lp91
S'Shruti'
p92
aS'Yash'
p93
aS'Vipra'
p94
asS'./gallery/WIN_20170525_17_14_59_Pro.jpg'
p95
(lp96
S'Varun'
p97
asS'./gallery/B612_20170410_142252.jpg'
p98
(lp99
S'Yash'
p100
aS'Vipra'
p101
asS'./gallery/IMG_20170410_154241.jpg'
p102
(lp103
S'Shruti'
p104
aS'Yash'
p105
asS'./gallery/IMG-20170530-WA0003.jpg'
p106
(lp107
S'Yash'
p108
aS'Varun'
p109
asS'./gallery/18700000_1922248551321988_5319205973375301216_n.jpg'
p110
(lp111
S'Shruti'
p112
aS'Yash'
p113
asS'./gallery/B612_20170410_142756.jpg'
p114
(lp115
sS'./gallery/IMG_20170410_142403503.jpg'
p116
(lp117
S'Yash'
p118
aS'Vipra'
p119
asS'./gallery/B612_20170410_153731.jpg'
p120
(lp121
S'Vipra'
p122
aS'Varun'
p123
asS'./gallery/WIN_20170427_13_27_50_Pro.jpg'
p124
(lp125
S'Varun'
p126
asS'./gallery/B612_20170410_153801.jpg'
p127
(lp128
S'Vipra'
p129
aS'Yash'
p130
asS'./gallery/B612_20170410_150736.jpg'
p131
(lp132
S'Shruti'
p133
aS'Vipra'
p134
asS'./gallery/IMG_20170326_181907134.jpg'
p135
(lp136
S'Vidur'
p137
aS'Yash'
p138
aS'Sanchit'
p139
asS'./gallery/IMG-20170528-WA0005.jpg'
p140
(lp141
S'Varun'
p142
asS'./gallery/B612_20170410_153800.jpg'
p143
(lp144
S'Vipra'
p145
aS'Yash'
p146
asS'./gallery/IMG_20170325_165651.jpg'
p147
(lp148
S'Tushar'
p149
aS'Yash'
p150
asS'./gallery/IMG_20170410_154712.jpg'
p151
(lp152
S'Vipra'
p153
asS'./gallery/WIN_20170529_15_32_55_Pro.jpg'
p154
(lp155
S'Varun'
p156
asS'./gallery/IMG_20170410_154222.jpg'
p157
(lp158
sS'./gallery/WIN_20170529_15_38_25_Pro.jpg'
p159
(lp160
S'Rishabh'
p161
asS'./gallery/IMG-20170530-WA0005.jpg'
p162
(lp163
S'Vidur'
p164
aS'Yash'
p165
aS'Tushar'
p166
aS'Yash'
p167
asS'./gallery/18700070_1922248627988647_2860269701071023271_n.jpg'
p168
(lp169
S'Siddhartha'
p170
aS'Tushar'
p171
aS'Yash'
p172
asS'./gallery/IMG-20170530-WA0009.jpg'
p173
(lp174
S'Vipra'
p175
aS'Shruti'
p176
aS'Shruti'
p177
asS'./gallery/WIN_20170529_15_38_26_Pro.jpg'
p178
(lp179
S'Rishabh'
p180
asS'./gallery/IMG-20170530-WA0002.jpg'
p181
(lp182
S'Yash'
p183
aS'Yash'
p184
asS'./gallery/IMG_20170325_165928.jpg'
p185
(lp186
S'Sanchit'
p187
aS'Yash'
p188
asS'./gallery/B612_20170410_163752.jpg'
p189
(lp190
S'Shruti'
p191
aS'Yash'
p192
aS'Vipra'
p193
asS'./gallery/IMG-20170528-WA0002.jpg'
p194
(lp195
S'Vipra'
p196
aS'Shruti'
p197
aS'Yash'
p198
asS'./gallery/B612_20170410_153732.jpg'
p199
(lp200
S'Vipra'
p201
aS'Varun'
p202
asS'./gallery/WIN_20170427_13_27_32_Pro.jpg'
p203
(lp204
S'Varun'
p205
asS'./gallery/WIN_20170427_15_01_28_Pro.jpg'
p206
(lp207
S'Siddhartha'
p208
aS'Varun'
p209
asS'./gallery/IMG-20170530-WA0012.jpg'
p210
(lp211
S'Vipra'
p212
aS'Shruti'
p213
aS'Yash'
p214
asS'./gallery/WIN_20170529_15_05_51_Pro (2).jpg'
p215
(lp216
S'Siddhartha'
p217
aS'Varun'
p218
asS'./gallery/WIN_20170529_15_05_51_Pro.jpg'
p219
(lp220
S'Siddhartha'
p221
aS'Varun'
p222
asS'./gallery/IMG_20170410_153854.jpg'
p223
(lp224
S'Shruti'
p225
aS'Vipra'
p226
aS'Yash'
p227
asS'./gallery/IMG_20170325_090948.jpg'
p228
(lp229
sS'./gallery/IMG-20170528-WA0003.jpg'
p230
(lp231
S'Vipra'
p232
aS'Sameer'
p233
asS'./gallery/B612_20170410_142340.jpg'
p234
(lp235
S'Shruti'
p236
aS'Vipra'
p237
aS'Sameer'
p238
aS'Tushar'
p239
asS'./gallery/IMG_20170326_182006.jpg'
p240
(lp241
S'Varun'
p242
aS'Varun'
p243
aS'Yash'
p244
as.