(dp0
S'./gallery/IMG_20170410_155320.jpg'
p1
(lp2
S'Shruti'
p3
aS'Varun'
p4
aS'Vipra'
p5
aS'Shruti'
p6
aS'Yash'
p7
asS'./gallery/B612_20170410_142756.jpg'
p8
(lp9
sS'./gallery/B612_20170410_153732.jpg'
p10
(lp11
S'Vipra'
p12
aS'Varun'
p13
asS'./gallery/B612_20170410_135423.jpg'
p14
(lp15
S'Shruti'
p16
aS'Vipra'
p17
asS'./gallery/IMG_20170410_154851.jpg'
p18
(lp19
S'Yash'
p20
asS'./gallery/IMG_20170410_154708.jpg'
p21
(lp22
S'Vipra'
p23
asS'./gallery/IMG_20170410_153854.jpg'
p24
(lp25
S'Shruti'
p26
aS'Vipra'
p27
aS'Yash'
p28
asS'./gallery/B612_20170410_154333.jpg'
p29
(lp30
S'Vipra'
p31
aS'Shruti'
p32
asS'./gallery/IMG_20170410_154712.jpg'
p33
(lp34
S'Vipra'
p35
asS'./gallery/IMG_20170410_154241.jpg'
p36
(lp37
S'Shruti'
p38
aS'Yash'
p39
asS'./gallery/B612_20170410_163754.jpg'
p40
(lp41
S'Shruti'
p42
aS'Yash'
p43
aS'Vipra'
p44
asS'./gallery/IMG_20170410_154222.jpg'
p45
(lp46
sS'./gallery/B612_20170410_153731.jpg'
p47
(lp48
S'Vipra'
p49
aS'Varun'
p50
asS'./gallery/B612_20170410_150736.jpg'
p51
(lp52
S'Shruti'
p53
aS'Vipra'
p54
asS'./gallery/IMG_20170410_142516.jpg'
p55
(lp56
S'Vipra'
p57
aS'Yash'
p58
asS'./gallery/B612_20170410_142340.jpg'
p59
(lp60
S'Shruti'
p61
aS'Vipra'
p62
aS'Sameer'
p63
aS'Tushar'
p64
asS'./gallery/B612_20170410_153800.jpg'
p65
(lp66
S'Vipra'
p67
aS'Yash'
p68
asS'./gallery/B612_20170410_153801.jpg'
p69
(lp70
S'Vipra'
p71
aS'Yash'
p72
as.