(dp0
S'./gallery/IMG_20170410_154241.jpg'
p1
(lp2
S'Shruti'
p3
aS'Yash'
p4
asS'./gallery/IMG_20170410_155320.jpg'
p5
(lp6
S'Vipra'
p7
aS'Varun'
p8
aS'Vipra'
p9
aS'Shruti'
p10
aS'Yash'
p11
asS'./gallery/IMG_20170410_154222.jpg'
p12
(lp13
sS'./gallery/B612_20170410_163803.jpg'
p14
(lp15
S'Vipra'
p16
asS'./gallery/IMG_20170410_184644.jpg'
p17
(lp18
S'Sanchit'
p19
aS'Yash'
p20
aS'Rishabh'
p21
asS'./gallery/IMG_20170326_163411833_HDR.jpg'
p22
(lp23
S'Varun'
p24
asS'./gallery/WIN_20170427_15_01_28_Pro.jpg'
p25
(lp26
S'Siddhartha'
p27
aS'Varun'
p28
asS'./gallery/IMG_20170410_154851.jpg'
p29
(lp30
S'Yash'
p31
asS'./gallery/B612_20170410_135423.jpg'
p32
(lp33
S'Shruti'
p34
aS'Vipra'
p35
asS'./gallery/B612_20170410_143603.jpg'
p36
(lp37
S'Yash'
p38
aS'Varun'
p39
asS'./gallery/WIN_20170529_15_38_23_Pro.jpg'
p40
(lp41
S'Rishabh'
p42
asS'./gallery/WIN_20170525_17_15_01_Pro.jpg'
p43
(lp44
S'Varun'
p45
asS'./gallery/WIN_20170525_17_14_54_Pro.jpg'
p46
(lp47
S'Varun'
p48
asS'./gallery/IMG_20170410_142516.jpg'
p49
(lp50
S'Vipra'
p51
aS'Yash'
p52
asS'./gallery/IMG_20170324_182702.jpg'
p53
(lp54
S'Yash'
p55
asS'./gallery/B612_20170410_163754.jpg'
p56
(lp57
S'Shruti'
p58
aS'Yash'
p59
aS'Vipra'
p60
asS'./gallery/WIN_20170525_17_14_57_Pro.jpg'
p61
(lp62
S'Varun'
p63
asS'./gallery/WIN_20170529_15_09_43_Pro.jpg'
p64
(lp65
S'Varun'
p66
aS'Saatvik'
p67
asS'./gallery/B612_20170410_154451.jpg'
p68
(lp69
S'Shruti'
p70
aS'Vipra'
p71
asS'./gallery/WIN_20170529_15_05_49_Pro.jpg'
p72
(lp73
S'Siddhartha'
p74
aS'Varun'
p75
asS'./gallery/B612_20170410_153801.jpg'
p76
(lp77
S'Vipra'
p78
aS'Yash'
p79
asS'./gallery/IMG-20170530-WA0004.jpg'
p80
(lp81
S'Yash'
p82
aS'Varun'
p83
asS'./gallery/IMG_20170326_183337.jpg'
p84
(lp85
S'Yash'
p86
aS'Varun'
p87
asS'./gallery/B612_20170410_154333.jpg'
p88
(lp89
S'Vipra'
p90
aS'Shruti'
p91
asS'./gallery/IMG_20170410_154708.jpg'
p92
(lp93
S'Vipra'
p94
asS'./gallery/IMG-20170530-WA0014.jpg'
p95
(lp96
S'Shruti'
p97
aS'Yash'
p98
aS'Vipra'
p99
asS'./gallery/WIN_20170525_17_14_59_Pro.jpg'
p100
(lp101
S'Varun'
p102
asS'./gallery/B612_20170410_142252.jpg'
p103
(lp104
S'Yash'
p105
aS'Vipra'
p106
asS'./gallery/B612_20170410_150736.jpg'
p107
(lp108
S'Shruti'
p109
aS'Vipra'
p110
asS'./gallery/IMG-20170530-WA0003.jpg'
p111
(lp112
S'Yash'
p113
aS'Varun'
p114
asS'./gallery/18700000_1922248551321988_5319205973375301216_n.jpg'
p115
(lp116
S'Shruti'
p117
aS'Yash'
p118
asS'./gallery/B612_20170410_142756.jpg'
p119
(lp120
sS'./gallery/IMG_20170410_142403503.jpg'
p121
(lp122
S'Yash'
p123
aS'Vipra'
p124
asS'./gallery/B612_20170410_153731.jpg'
p125
(lp126
S'Vipra'
p127
aS'Varun'
p128
asS'./gallery/WIN_20170427_13_27_50_Pro.jpg'
p129
(lp130
S'Varun'
p131
asS'./gallery/B612_20170410_142340.jpg'
p132
(lp133
S'Shruti'
p134
aS'Vipra'
p135
aS'Sameer'
p136
aS'Tushar'
p137
asS'./gallery/IMG-20170530-WA0002 - Copy.jpg'
p138
(lp139
S'Shruti'
p140
aS'Vipra'
p141
aS'Vipra'
p142
asS'./gallery/IMG-20170530-WA0002.jpg'
p143
(lp144
S'Yash'
p145
aS'Yash'
p146
asS'./gallery/B612_20170410_153800.jpg'
p147
(lp148
S'Vipra'
p149
aS'Yash'
p150
asS'./gallery/IMG_20170325_165651.jpg'
p151
(lp152
S'Tushar'
p153
aS'Yash'
p154
asS'./gallery/IMG_20170410_154712.jpg'
p155
(lp156
S'Vipra'
p157
asS'./gallery/WIN_20170529_15_32_55_Pro.jpg'
p158
(lp159
S'Varun'
p160
asS'./gallery/IMG-20170530-WA0001.jpg'
p161
(lp162
S'Varun'
p163
aS'Yash'
p164
asS'./gallery/WIN_20170529_15_38_25_Pro.jpg'
p165
(lp166
S'Rishabh'
p167
asS'./gallery/IMG-20170530-WA0005.jpg'
p168
(lp169
S'Vidur'
p170
aS'Yash'
p171
aS'Tushar'
p172
aS'Yash'
p173
asS'./gallery/18700070_1922248627988647_2860269701071023271_n.jpg'
p174
(lp175
S'Siddhartha'
p176
aS'Tushar'
p177
aS'Yash'
p178
asS'./gallery/IMG-20170530-WA0009.jpg'
p179
(lp180
S'Vipra'
p181
aS'Shruti'
p182
aS'Shruti'
p183
asS'./gallery/WIN_20170529_15_38_26_Pro.jpg'
p184
(lp185
S'Rishabh'
p186
asS'./gallery/IMG_20170326_181907134.jpg'
p187
(lp188
S'Vidur'
p189
aS'Yash'
p190
aS'Sanchit'
p191
asS'./gallery/IMG_20170325_165928.jpg'
p192
(lp193
S'Sanchit'
p194
aS'Yash'
p195
asS'./gallery/B612_20170410_163752.jpg'
p196
(lp197
S'Shruti'
p198
aS'Yash'
p199
aS'Vipra'
p200
asS'./gallery/B612_20170410_153732.jpg'
p201
(lp202
S'Vipra'
p203
aS'Varun'
p204
asS'./gallery/WIN_20170427_13_27_32_Pro.jpg'
p205
(lp206
S'Varun'
p207
asS'./gallery/IMG-20170528-WA0002.jpg'
p208
(lp209
S'Vipra'
p210
aS'Shruti'
p211
aS'Yash'
p212
asS'./gallery/IMG-20170530-WA0012.jpg'
p213
(lp214
S'Vipra'
p215
aS'Shruti'
p216
aS'Yash'
p217
asS'./gallery/WIN_20170529_15_05_51_Pro (2).jpg'
p218
(lp219
S'Siddhartha'
p220
aS'Varun'
p221
asS'./gallery/IMG_20170326_182006.jpg'
p222
(lp223
S'Varun'
p224
aS'Varun'
p225
aS'Yash'
p226
asS'./gallery/IMG_20170410_153854.jpg'
p227
(lp228
S'Shruti'
p229
aS'Vipra'
p230
aS'Yash'
p231
asS'./gallery/IMG_20170325_090948.jpg'
p232
(lp233
sS'./gallery/IMG-20170528-WA0003.jpg'
p234
(lp235
S'Vipra'
p236
aS'Sameer'
p237
asS'./gallery/IMG-20170528-WA0005.jpg'
p238
(lp239
S'Varun'
p240
asS'./gallery/WIN_20170529_15_05_51_Pro.jpg'
p241
(lp242
S'Siddhartha'
p243
aS'Varun'
p244
as.