(dp0
S'./gallery/IMG_20170410_155320.jpg'
p1
(lp2
S'Shruti'
p3
aS'Varun'
p4
aS'Vipra'
p5
aS'Shruti'
p6
aS'Yash'
p7
asS'./gallery/B612_20170410_153801.jpg'
p8
(lp9
S'Vipra'
p10
aS'Yash'
p11
asS'./gallery/B612_20170410_153800.jpg'
p12
(lp13
S'Vipra'
p14
aS'Yash'
p15
asS'./gallery/IMG_20170410_154222.jpg'
p16
(lp17
sS'./gallery/B612_20170410_153732.jpg'
p18
(lp19
S'Vipra'
p20
aS'Varun'
p21
asS'./gallery/B612_20170410_135423.jpg'
p22
(lp23
S'Shruti'
p24
aS'Vipra'
p25
asS'./gallery/IMG_20170410_154851.jpg'
p26
(lp27
S'Yash'
p28
asS'./gallery/IMG_20170410_154708.jpg'
p29
(lp30
S'Vipra'
p31
asS'./gallery/IMG_20170410_154712.jpg'
p32
(lp33
S'Vipra'
p34
asS'./gallery/B612_20170410_163754.jpg'
p35
(lp36
S'Shruti'
p37
aS'Yash'
p38
aS'Vipra'
p39
asS'./gallery/IMG_20170410_153854.jpg'
p40
(lp41
S'Shruti'
p42
aS'Vipra'
p43
aS'Yash'
p44
asS'./gallery/IMG_20170410_154241.jpg'
p45
(lp46
S'Shruti'
p47
aS'Yash'
p48
asS'./gallery/B612_20170410_142756.jpg'
p49
(lp50
sS'./gallery/B612_20170410_153731.jpg'
p51
(lp52
S'Vipra'
p53
aS'Varun'
p54
asS'./gallery/B612_20170410_150736.jpg'
p55
(lp56
S'Shruti'
p57
aS'Vipra'
p58
asS'./gallery/IMG_20170410_142516.jpg'
p59
(lp60
S'Vipra'
p61
aS'Yash'
p62
asS'./gallery/B612_20170410_154333.jpg'
p63
(lp64
S'Vipra'
p65
aS'Shruti'
p66
asS'./gallery/B612_20170410_142340.jpg'
p67
(lp68
S'Shruti'
p69
aS'Vipra'
p70
aS'Sameer'
p71
aS'Tushar'
p72
as.