(dp0
S'./gallery/IMG_20170410_155320.jpg'
p1
(lp2
S'Vipra'
p3
aS'Varun'
p4
aS'Vipra'
p5
aS'Shruti'
p6
aS'Yash'
p7
asS'./gallery/IMG_20170410_154222.jpg'
p8
(lp9
sS'./gallery/B612_20170410_163803.jpg'
p10
(lp11
S'Vipra'
p12
asS'./gallery/IMG_20170410_184644.jpg'
p13
(lp14
S'Sanchit'
p15
aS'Yash'
p16
aS'Rishabh'
p17
asS'./gallery/IMG_20170326_163411833_HDR.jpg'
p18
(lp19
S'Varun'
p20
asS'./gallery/WIN_20170525_17_15_01_Pro.jpg'
p21
(lp22
S'Varun'
p23
asS'./gallery/IMG_20170410_154851.jpg'
p24
(lp25
S'Yash'
p26
asS'./gallery/B612_20170410_135423.jpg'
p27
(lp28
S'Shruti'
p29
aS'Vipra'
p30
asS'./gallery/B612_20170410_143603.jpg'
p31
(lp32
S'Yash'
p33
aS'Varun'
p34
asS'./gallery/WIN_20170529_15_38_23_Pro.jpg'
p35
(lp36
S'Rishabh'
p37
asS'./gallery/WIN_20170525_17_14_54_Pro.jpg'
p38
(lp39
S'Varun'
p40
asS'./gallery/IMG_20170410_142516.jpg'
p41
(lp42
S'Vipra'
p43
aS'Yash'
p44
asS'./gallery/IMG_20170324_182702.jpg'
p45
(lp46
S'Yash'
p47
asS'./gallery/B612_20170410_163754.jpg'
p48
(lp49
S'Shruti'
p50
aS'Yash'
p51
aS'Vipra'
p52
asS'./gallery/WIN_20170525_17_14_57_Pro.jpg'
p53
(lp54
S'Varun'
p55
asS'./gallery/WIN_20170529_15_09_43_Pro.jpg'
p56
(lp57
S'Varun'
p58
aS'Saatvik'
p59
asS'./gallery/B612_20170410_154451.jpg'
p60
(lp61
S'Shruti'
p62
aS'Vipra'
p63
asS'./gallery/WIN_20170529_15_05_49_Pro.jpg'
p64
(lp65
S'Siddhartha'
p66
aS'Varun'
p67
asS'./gallery/IMG-20170530-WA0004.jpg'
p68
(lp69
S'Yash'
p70
aS'Varun'
p71
asS'./gallery/IMG_20170326_183337.jpg'
p72
(lp73
S'Yash'
p74
aS'Varun'
p75
asS'./gallery/B612_20170410_154333.jpg'
p76
(lp77
S'Vipra'
p78
aS'Shruti'
p79
asS'./gallery/IMG_20170410_154708.jpg'
p80
(lp81
S'Vipra'
p82
asS'./gallery/IMG-20170530-WA0014.jpg'
p83
(lp84
S'Shruti'
p85
aS'Yash'
p86
aS'Vipra'
p87
asS'./gallery/WIN_20170525_17_14_59_Pro.jpg'
p88
(lp89
S'Varun'
p90
asS'./gallery/IMG-20170530-WA0012.jpg'
p91
(lp92
S'Vipra'
p93
aS'Shruti'
p94
aS'Yash'
p95
asS'./gallery/B612_20170410_142252.jpg'
p96
(lp97
S'Yash'
p98
aS'Vipra'
p99
asS'./gallery/IMG_20170410_154241.jpg'
p100
(lp101
S'Shruti'
p102
aS'Yash'
p103
asS'./gallery/IMG-20170530-WA0003.jpg'
p104
(lp105
S'Yash'
p106
aS'Varun'
p107
asS'./gallery/18700000_1922248551321988_5319205973375301216_n.jpg'
p108
(lp109
S'Shruti'
p110
aS'Yash'
p111
asS'./gallery/B612_20170410_142756.jpg'
p112
(lp113
sS'./gallery/IMG_20170410_142403503.jpg'
p114
(lp115
S'Yash'
p116
aS'Vipra'
p117
asS'./gallery/B612_20170410_153731.jpg'
p118
(lp119
S'Vipra'
p120
aS'Varun'
p121
asS'./gallery/WIN_20170427_13_27_50_Pro.jpg'
p122
(lp123
S'Varun'
p124
asS'./gallery/B612_20170410_153801.jpg'
p125
(lp126
S'Vipra'
p127
aS'Yash'
p128
asS'./gallery/IMG-20170530-WA0002 - Copy.jpg'
p129
(lp130
S'Shruti'
p131
aS'Vipra'
p132
aS'Vipra'
p133
asS'./gallery/B612_20170410_142340.jpg'
p134
(lp135
S'Shruti'
p136
aS'Vipra'
p137
aS'Sameer'
p138
aS'Tushar'
p139
asS'./gallery/IMG-20170530-WA0002.jpg'
p140
(lp141
S'Yash'
p142
aS'Yash'
p143
asS'./gallery/B612_20170410_153800.jpg'
p144
(lp145
S'Vipra'
p146
aS'Yash'
p147
asS'./gallery/IMG_20170325_165651.jpg'
p148
(lp149
S'Tushar'
p150
aS'Yash'
p151
asS'./gallery/IMG_20170410_154712.jpg'
p152
(lp153
S'Vipra'
p154
asS'./gallery/WIN_20170529_15_32_55_Pro.jpg'
p155
(lp156
S'Varun'
p157
asS'./gallery/IMG-20170530-WA0001.jpg'
p158
(lp159
S'Varun'
p160
aS'Yash'
p161
asS'./gallery/WIN_20170529_15_38_25_Pro.jpg'
p162
(lp163
S'Rishabh'
p164
asS'./gallery/IMG-20170530-WA0005.jpg'
p165
(lp166
S'Vidur'
p167
aS'Yash'
p168
aS'Tushar'
p169
aS'Yash'
p170
asS'./gallery/18700070_1922248627988647_2860269701071023271_n.jpg'
p171
(lp172
S'Siddhartha'
p173
aS'Tushar'
p174
aS'Yash'
p175
asS'./gallery/IMG-20170530-WA0009.jpg'
p176
(lp177
S'Vipra'
p178
aS'Shruti'
p179
aS'Shruti'
p180
asS'./gallery/WIN_20170529_15_38_26_Pro.jpg'
p181
(lp182
S'Rishabh'
p183
asS'./gallery/IMG_20170326_181907134.jpg'
p184
(lp185
S'Vidur'
p186
aS'Yash'
p187
aS'Sanchit'
p188
asS'./gallery/IMG_20170325_165928.jpg'
p189
(lp190
S'Sanchit'
p191
aS'Yash'
p192
asS'./gallery/B612_20170410_163752.jpg'
p193
(lp194
S'Shruti'
p195
aS'Yash'
p196
aS'Vipra'
p197
asS'./gallery/B612_20170410_153732.jpg'
p198
(lp199
S'Vipra'
p200
aS'Varun'
p201
asS'./gallery/WIN_20170427_13_27_32_Pro.jpg'
p202
(lp203
S'Varun'
p204
asS'./gallery/IMG-20170528-WA0002.jpg'
p205
(lp206
S'Vipra'
p207
aS'Shruti'
p208
aS'Yash'
p209
asS'./gallery/B612_20170410_150736.jpg'
p210
(lp211
S'Shruti'
p212
aS'Vipra'
p213
asS'./gallery/WIN_20170529_15_05_51_Pro (2).jpg'
p214
(lp215
S'Siddhartha'
p216
aS'Varun'
p217
asS'./gallery/IMG_20170326_182006.jpg'
p218
(lp219
S'Varun'
p220
aS'Varun'
p221
aS'Yash'
p222
asS'./gallery/WIN_20170427_15_01_28_Pro.jpg'
p223
(lp224
S'Siddhartha'
p225
aS'Varun'
p226
asS'./gallery/IMG_20170410_153854.jpg'
p227
(lp228
S'Shruti'
p229
aS'Vipra'
p230
aS'Yash'
p231
asS'./gallery/IMG_20170325_090948.jpg'
p232
(lp233
sS'./gallery/IMG-20170528-WA0003.jpg'
p234
(lp235
S'Vipra'
p236
aS'Sameer'
p237
asS'./gallery/IMG-20170528-WA0005.jpg'
p238
(lp239
S'Varun'
p240
asS'./gallery/WIN_20170529_15_05_51_Pro.jpg'
p241
(lp242
S'Siddhartha'
p243
aS'Varun'
p244
as.